target datalayout = "e-m:e-p270:32:32-p271:32:32-p272:64:64-i64:64-i128:128-f80:128-n8:16:32:64-S128"
target triple = "x86_64-pc-linux-gnu"

%struct._GdkEventButton = type { i32, ptr, i8, i32, double, double, ptr, i32, i32, ptr, double, double }

@.str.33 = private unnamed_addr constant [1 x i8] zeroinitializer, align 1

; Function Attrs: nounwind uwtable
define internal i32 @_import_metadata_reset(ptr noundef %0, ptr noundef %1, ptr noundef %2) #0 {
  %4 = alloca ptr, align 8
  %5 = alloca ptr, align 8
  %6 = alloca ptr, align 8
  store ptr %0, ptr %4, align 8, !tbaa !11
  store ptr %1, ptr %5, align 8, !tbaa !79
  store ptr %2, ptr %6, align 8, !tbaa !11
  %7 = load ptr, ptr %5, align 8, !tbaa !79
  %8 = getelementptr inbounds nuw %struct._GdkEventButton, ptr %7, i32 0, i32 0
  %9 = load i32, ptr %8, align 8, !tbaa !81
  %10 = icmp eq i32 %9, 5
  br i1 %10, label %11, label %15

11:                                               ; preds = %3
  %12 = load ptr, ptr %6, align 8, !tbaa !11
  %13 = call i64 @gtk_entry_get_type() #8
  %14 = call ptr @g_type_check_instance_cast(ptr noundef %12, i64 noundef %13)
  call void @gtk_entry_set_text(ptr noundef %14, ptr noundef @.str.33)
  br label %15

15:                                               ; preds = %11, %3
  ret i32 0
}